target datalayout = "e-m:e-p270:32:32-p271:32:32-p272:64:64-i64:64-i128:128-f80:128-n8:16:32:64-S128"
target triple = "x86_64-pc-linux-gnu"

%struct.vars = type { ptr, ptr, ptr, i32, i32, i32, i32, i32, i32, i32, ptr, i64, [10 x ptr], ptr, ptr, i16, ptr, ptr, ptr, ptr, i32, ptr, ptr, ptr, i32, i64 }
%struct.nfa = type { ptr, ptr, ptr, ptr, i32, ptr, ptr, ptr, ptr, ptr, ptr, i64, i64, ptr, [2 x i16], [2 x i16], i32, i32, i32, ptr, ptr }
%struct.state = type { i32, i8, i32, i32, ptr, ptr, ptr, ptr, ptr }
%struct.statebatch = type { ptr, i64, [0 x %struct.state] }

@InterruptPending = external global i32, align 4

; Function Attrs: nounwind uwtable
define internal ptr @newstate(ptr noundef %0) #0 {
  %2 = alloca ptr, align 8
  %3 = alloca ptr, align 8
  %4 = alloca ptr, align 8
  %5 = alloca ptr, align 8
  %6 = alloca i64, align 8
  %7 = alloca i32, align 4
  store ptr %0, ptr %3, align 8
  call void @llvm.lifetime.start.p0(i64 8, ptr %4) #12
  br label %8

8:                                                ; preds = %1
  %9 = load volatile i32, ptr @InterruptPending, align 4
  %10 = icmp ne i32 %9, 0
  %11 = zext i1 %10 to i32
  %12 = sext i32 %11 to i64
  %13 = call i64 @llvm.expect.i64(i64 %12, i64 0)
  %14 = icmp ne i64 %13, 0
  br i1 %14, label %15, label %16

15:                                               ; preds = %8
  call void @ProcessInterrupts()
  br label %16

16:                                               ; preds = %15, %8
  br label %17

17:                                               ; preds = %16
  br label %18

18:                                               ; preds = %17
  %19 = load ptr, ptr %3, align 8
  %20 = getelementptr inbounds nuw %struct.nfa, ptr %19, i32 0, i32 7
  %21 = load ptr, ptr %20, align 8
  %22 = icmp ne ptr %21, null
  br i1 %22, label %23, label %32

23:                                               ; preds = %18
  %24 = load ptr, ptr %3, align 8
  %25 = getelementptr inbounds nuw %struct.nfa, ptr %24, i32 0, i32 7
  %26 = load ptr, ptr %25, align 8
  store ptr %26, ptr %4, align 8
  %27 = load ptr, ptr %4, align 8
  %28 = getelementptr inbounds nuw %struct.state, ptr %27, i32 0, i32 7
  %29 = load ptr, ptr %28, align 8
  %30 = load ptr, ptr %3, align 8
  %31 = getelementptr inbounds nuw %struct.nfa, ptr %30, i32 0, i32 7
  store ptr %29, ptr %31, align 8
  br label %167

32:                                               ; preds = %18
  %33 = load ptr, ptr %3, align 8
  %34 = getelementptr inbounds nuw %struct.nfa, ptr %33, i32 0, i32 9
  %35 = load ptr, ptr %34, align 8
  %36 = icmp ne ptr %35, null
  br i1 %36, label %37, label %57

37:                                               ; preds = %32
  %38 = load ptr, ptr %3, align 8
  %39 = getelementptr inbounds nuw %struct.nfa, ptr %38, i32 0, i32 11
  %40 = load i64, ptr %39, align 8
  %41 = load ptr, ptr %3, align 8
  %42 = getelementptr inbounds nuw %struct.nfa, ptr %41, i32 0, i32 9
  %43 = load ptr, ptr %42, align 8
  %44 = getelementptr inbounds nuw %struct.statebatch, ptr %43, i32 0, i32 1
  %45 = load i64, ptr %44, align 8
  %46 = icmp ult i64 %40, %45
  br i1 %46, label %47, label %57

47:                                               ; preds = %37
  %48 = load ptr, ptr %3, align 8
  %49 = getelementptr inbounds nuw %struct.nfa, ptr %48, i32 0, i32 9
  %50 = load ptr, ptr %49, align 8
  %51 = getelementptr inbounds nuw %struct.statebatch, ptr %50, i32 0, i32 2
  %52 = load ptr, ptr %3, align 8
  %53 = getelementptr inbounds nuw %struct.nfa, ptr %52, i32 0, i32 11
  %54 = load i64, ptr %53, align 8
  %55 = add i64 %54, 1
  store i64 %55, ptr %53, align 8
  %56 = getelementptr inbounds nuw [0 x %struct.state], ptr %51, i64 0, i64 %54
  store ptr %56, ptr %4, align 8
  br label %166

57:                                               ; preds = %37, %32
  call void @llvm.lifetime.start.p0(i64 8, ptr %5) #12
  call void @llvm.lifetime.start.p0(i64 8, ptr %6) #12
  %58 = load ptr, ptr %3, align 8
  %59 = getelementptr inbounds nuw %struct.nfa, ptr %58, i32 0, i32 19
  %60 = load ptr, ptr %59, align 8
  %61 = getelementptr inbounds nuw %struct.vars, ptr %60, i32 0, i32 25
  %62 = load i64, ptr %61, align 8
  %63 = icmp uge i64 %62, 172000000
  br i1 %63, label %64, label %88

64:                                               ; preds = %57
  %65 = load ptr, ptr %3, align 8
  %66 = getelementptr inbounds nuw %struct.nfa, ptr %65, i32 0, i32 19
  %67 = load ptr, ptr %66, align 8
  %68 = getelementptr inbounds nuw %struct.vars, ptr %67, i32 0, i32 6
  store i32 101, ptr %68, align 4
  %69 = load ptr, ptr %3, align 8
  %70 = getelementptr inbounds nuw %struct.nfa, ptr %69, i32 0, i32 19
  %71 = load ptr, ptr %70, align 8
  %72 = getelementptr inbounds nuw %struct.vars, ptr %71, i32 0, i32 3
  %73 = load i32, ptr %72, align 8
  %74 = icmp ne i32 %73, 0
  br i1 %74, label %75, label %81

75:                                               ; preds = %64
  %76 = load ptr, ptr %3, align 8
  %77 = getelementptr inbounds nuw %struct.nfa, ptr %76, i32 0, i32 19
  %78 = load ptr, ptr %77, align 8
  %79 = getelementptr inbounds nuw %struct.vars, ptr %78, i32 0, i32 3
  %80 = load i32, ptr %79, align 8
  br label %82

81:                                               ; preds = %64
  br label %82

82:                                               ; preds = %81, %75
  %83 = phi i32 [ %80, %75 ], [ 19, %81 ]
  %84 = load ptr, ptr %3, align 8
  %85 = getelementptr inbounds nuw %struct.nfa, ptr %84, i32 0, i32 19
  %86 = load ptr, ptr %85, align 8
  %87 = getelementptr inbounds nuw %struct.vars, ptr %86, i32 0, i32 3
  store i32 %83, ptr %87, align 8
  store ptr null, ptr %2, align 8
  store i32 1, ptr %7, align 4
  br label %163

88:                                               ; preds = %57
  %89 = load ptr, ptr %3, align 8
  %90 = getelementptr inbounds nuw %struct.nfa, ptr %89, i32 0, i32 9
  %91 = load ptr, ptr %90, align 8
  %92 = icmp ne ptr %91, null
  br i1 %92, label %93, label %100

93:                                               ; preds = %88
  %94 = load ptr, ptr %3, align 8
  %95 = getelementptr inbounds nuw %struct.nfa, ptr %94, i32 0, i32 9
  %96 = load ptr, ptr %95, align 8
  %97 = getelementptr inbounds nuw %struct.statebatch, ptr %96, i32 0, i32 1
  %98 = load i64, ptr %97, align 8
  %99 = mul i64 %98, 2
  br label %101

100:                                              ; preds = %88
  br label %101

101:                                              ; preds = %100, %93
  %102 = phi i64 [ %99, %93 ], [ 32, %100 ]
  store i64 %102, ptr %6, align 8
  %103 = load i64, ptr %6, align 8
  %104 = icmp ugt i64 %103, 1024
  br i1 %104, label %105, label %106

105:                                              ; preds = %101
  store i64 1024, ptr %6, align 8
  br label %106

106:                                              ; preds = %105, %101
  %107 = load i64, ptr %6, align 8
  %108 = mul i64 %107, 56
  %109 = add i64 %108, 16
  %110 = call ptr @palloc_extended(i64 noundef %109, i32 noundef 2)
  store ptr %110, ptr %5, align 8
  %111 = load ptr, ptr %5, align 8
  %112 = icmp eq ptr %111, null
  br i1 %112, label %113, label %137

113:                                              ; preds = %106
  %114 = load ptr, ptr %3, align 8
  %115 = getelementptr inbounds nuw %struct.nfa, ptr %114, i32 0, i32 19
  %116 = load ptr, ptr %115, align 8
  %117 = getelementptr inbounds nuw %struct.vars, ptr %116, i32 0, i32 6
  store i32 101, ptr %117, align 4
  %118 = load ptr, ptr %3, align 8
  %119 = getelementptr inbounds nuw %struct.nfa, ptr %118, i32 0, i32 19
  %120 = load ptr, ptr %119, align 8
  %121 = getelementptr inbounds nuw %struct.vars, ptr %120, i32 0, i32 3
  %122 = load i32, ptr %121, align 8
  %123 = icmp ne i32 %122, 0
  br i1 %123, label %124, label %130

124:                                              ; preds = %113
  %125 = load ptr, ptr %3, align 8
  %126 = getelementptr inbounds nuw %struct.nfa, ptr %125, i32 0, i32 19
  %127 = load ptr, ptr %126, align 8
  %128 = getelementptr inbounds nuw %struct.vars, ptr %127, i32 0, i32 3
  %129 = load i32, ptr %128, align 8
  br label %131

130:                                              ; preds = %113
  br label %131

131:                                              ; preds = %130, %124
  %132 = phi i32 [ %129, %124 ], [ 12, %130 ]
  %133 = load ptr, ptr %3, align 8
  %134 = getelementptr inbounds nuw %struct.nfa, ptr %133, i32 0, i32 19
  %135 = load ptr, ptr %134, align 8
  %136 = getelementptr inbounds nuw %struct.vars, ptr %135, i32 0, i32 3
  store i32 %132, ptr %136, align 8
  store ptr null, ptr %2, align 8
  store i32 1, ptr %7, align 4
  br label %163

137:                                              ; preds = %106
  %138 = load i64, ptr %6, align 8
  %139 = mul i64 %138, 56
  %140 = add i64 %139, 16
  %141 = load ptr, ptr %3, align 8
  %142 = getelementptr inbounds nuw %struct.nfa, ptr %141, i32 0, i32 19
  %143 = load ptr, ptr %142, align 8
  %144 = getelementptr inbounds nuw %struct.vars, ptr %143, i32 0, i32 25
  %145 = load i64, ptr %144, align 8
  %146 = add i64 %145, %140
  store i64 %146, ptr %144, align 8
  %147 = load i64, ptr %6, align 8
  %148 = load ptr, ptr %5, align 8
  %149 = getelementptr inbounds nuw %struct.statebatch, ptr %148, i32 0, i32 1
  store i64 %147, ptr %149, align 8
  %150 = load ptr, ptr %3, align 8
  %151 = getelementptr inbounds nuw %struct.nfa, ptr %150, i32 0, i32 9
  %152 = load ptr, ptr %151, align 8
  %153 = load ptr, ptr %5, align 8
  %154 = getelementptr inbounds nuw %struct.statebatch, ptr %153, i32 0, i32 0
  store ptr %152, ptr %154, align 8
  %155 = load ptr, ptr %5, align 8
  %156 = load ptr, ptr %3, align 8
  %157 = getelementptr inbounds nuw %struct.nfa, ptr %156, i32 0, i32 9
  store ptr %155, ptr %157, align 8
  %158 = load ptr, ptr %3, align 8
  %159 = getelementptr inbounds nuw %struct.nfa, ptr %158, i32 0, i32 11
  store i64 1, ptr %159, align 8
  %160 = load ptr, ptr %5, align 8
  %161 = getelementptr inbounds nuw %struct.statebatch, ptr %160, i32 0, i32 2
  %162 = getelementptr inbounds [0 x %struct.state], ptr %161, i64 0, i64 0
  store ptr %162, ptr %4, align 8
  store i32 0, ptr %7, align 4
  br label %163

163:                                              ; preds = %137, %131, %82
  call void @llvm.lifetime.end.p0(i64 8, ptr %6) #12
  call void @llvm.lifetime.end.p0(i64 8, ptr %5) #12
  %164 = load i32, ptr %7, align 4
  switch i32 %164, label %217 [
    i32 0, label %165
  ]

165:                                              ; preds = %163
  br label %166

166:                                              ; preds = %165, %47
  br label %167

167:                                              ; preds = %166, %23
  %168 = load ptr, ptr %3, align 8
  %169 = getelementptr inbounds nuw %struct.nfa, ptr %168, i32 0, i32 4
  %170 = load i32, ptr %169, align 8
  %171 = add i32 %170, 1
  store i32 %171, ptr %169, align 8
  %172 = load ptr, ptr %4, align 8
  %173 = getelementptr inbounds nuw %struct.state, ptr %172, i32 0, i32 0
  store i32 %170, ptr %173, align 8
  %174 = load ptr, ptr %4, align 8
  %175 = getelementptr inbounds nuw %struct.state, ptr %174, i32 0, i32 1
  store i8 0, ptr %175, align 4
  %176 = load ptr, ptr %3, align 8
  %177 = getelementptr inbounds nuw %struct.nfa, ptr %176, i32 0, i32 5
  %178 = load ptr, ptr %177, align 8
  %179 = icmp eq ptr %178, null
  br i1 %179, label %180, label %184

180:                                              ; preds = %167
  %181 = load ptr, ptr %4, align 8
  %182 = load ptr, ptr %3, align 8
  %183 = getelementptr inbounds nuw %struct.nfa, ptr %182, i32 0, i32 5
  store ptr %181, ptr %183, align 8
  br label %184

184:                                              ; preds = %180, %167
  %185 = load ptr, ptr %4, align 8
  %186 = getelementptr inbounds nuw %struct.state, ptr %185, i32 0, i32 2
  store i32 0, ptr %186, align 8
  %187 = load ptr, ptr %4, align 8
  %188 = getelementptr inbounds nuw %struct.state, ptr %187, i32 0, i32 4
  store ptr null, ptr %188, align 8
  %189 = load ptr, ptr %4, align 8
  %190 = getelementptr inbounds nuw %struct.state, ptr %189, i32 0, i32 3
  store i32 0, ptr %190, align 4
  %191 = load ptr, ptr %4, align 8
  %192 = getelementptr inbounds nuw %struct.state, ptr %191, i32 0, i32 5
  store ptr null, ptr %192, align 8
  %193 = load ptr, ptr %4, align 8
  %194 = getelementptr inbounds nuw %struct.state, ptr %193, i32 0, i32 6
  store ptr null, ptr %194, align 8
  %195 = load ptr, ptr %4, align 8
  %196 = getelementptr inbounds nuw %struct.state, ptr %195, i32 0, i32 7
  store ptr null, ptr %196, align 8
  %197 = load ptr, ptr %3, align 8
  %198 = getelementptr inbounds nuw %struct.nfa, ptr %197, i32 0, i32 6
  %199 = load ptr, ptr %198, align 8
  %200 = icmp ne ptr %199, null
  br i1 %200, label %201, label %207

201:                                              ; preds = %184
  %202 = load ptr, ptr %4, align 8
  %203 = load ptr, ptr %3, align 8
  %204 = getelementptr inbounds nuw %struct.nfa, ptr %203, i32 0, i32 6
  %205 = load ptr, ptr %204, align 8
  %206 = getelementptr inbounds nuw %struct.state, ptr %205, i32 0, i32 7
  store ptr %202, ptr %206, align 8
  br label %207

207:                                              ; preds = %201, %184
  %208 = load ptr, ptr %3, align 8
  %209 = getelementptr inbounds nuw %struct.nfa, ptr %208, i32 0, i32 6
  %210 = load ptr, ptr %209, align 8
  %211 = load ptr, ptr %4, align 8
  %212 = getelementptr inbounds nuw %struct.state, ptr %211, i32 0, i32 8
  store ptr %210, ptr %212, align 8
  %213 = load ptr, ptr %4, align 8
  %214 = load ptr, ptr %3, align 8
  %215 = getelementptr inbounds nuw %struct.nfa, ptr %214, i32 0, i32 6
  store ptr %213, ptr %215, align 8
  %216 = load ptr, ptr %4, align 8
  store ptr %216, ptr %2, align 8
  store i32 1, ptr %7, align 4
  br label %217

217:                                              ; preds = %207, %163
  call void @llvm.lifetime.end.p0(i64 8, ptr %4) #12
  %218 = load ptr, ptr %2, align 8
  ret ptr %218
}