; Function Attrs: nounwind uwtable
define internal fastcc noundef ptr @newstate(ptr noundef captures(none) %0) unnamed_addr #0 {
  %2 = load volatile i32, ptr @InterruptPending, align 4
  %.not = icmp eq i32 %2, 0
  br i1 %.not, label %4, label %3, !prof !13

3:                                                ; preds = %1
  tail call void @ProcessInterrupts() #20
  br label %4

4:                                                ; preds = %3, %1
  %5 = getelementptr inbounds nuw i8, ptr %0, i64 56
  %6 = load ptr, ptr %5, align 8
  %.not65 = icmp eq ptr %6, null
  br i1 %.not65, label %10, label %7

7:                                                ; preds = %4
  %8 = getelementptr inbounds nuw i8, ptr %6, i64 40
  %9 = load ptr, ptr %8, align 8
  store ptr %9, ptr %5, align 8
  br label %64

10:                                               ; preds = %4
  %11 = getelementptr inbounds nuw i8, ptr %0, i64 72
  %12 = load ptr, ptr %11, align 8
  %.not66 = icmp eq ptr %12, null
  br i1 %.not66, label %23, label %13

13:                                               ; preds = %10
  %14 = getelementptr inbounds nuw i8, ptr %0, i64 88
  %15 = load i64, ptr %14, align 8
  %16 = getelementptr inbounds nuw i8, ptr %12, i64 8
  %17 = load i64, ptr %16, align 8
  %18 = icmp ult i64 %15, %17
  br i1 %18, label %19, label %.thread

19:                                               ; preds = %13
  %20 = getelementptr inbounds nuw i8, ptr %12, i64 16
  %21 = add nuw i64 %15, 1
  store i64 %21, ptr %14, align 8
  %22 = getelementptr inbounds nuw [0 x %struct.state], ptr %20, i64 0, i64 %15
  br label %64

23:                                               ; preds = %10
  %24 = getelementptr inbounds nuw i8, ptr %0, i64 136
  %25 = load ptr, ptr %24, align 8
  %26 = getelementptr inbounds nuw i8, ptr %25, i64 248
  %27 = load i64, ptr %26, align 8
  %28 = icmp ugt i64 %27, 171999999
  br i1 %28, label %34, label %43

.thread:                                          ; preds = %13
  %29 = getelementptr inbounds nuw i8, ptr %0, i64 136
  %30 = load ptr, ptr %29, align 8
  %31 = getelementptr inbounds nuw i8, ptr %30, i64 248
  %32 = load i64, ptr %31, align 8
  %33 = icmp ugt i64 %32, 171999999
  br i1 %33, label %34, label %41

34:                                               ; preds = %.thread, %23
  %35 = phi ptr [ %30, %.thread ], [ %25, %23 ]
  %36 = phi ptr [ %29, %.thread ], [ %24, %23 ]
  %37 = getelementptr inbounds nuw i8, ptr %35, i64 36
  store i32 101, ptr %37, align 4
  %38 = load ptr, ptr %36, align 8
  %39 = getelementptr inbounds nuw i8, ptr %38, i64 24
  %40 = load i32, ptr %39, align 8
  %.not69 = icmp eq i32 %40, 0
  %spec.select = select i1 %.not69, i32 19, i32 %40
  store i32 %spec.select, ptr %39, align 8
  br label %.thread73

41:                                               ; preds = %.thread
  %42 = shl i64 %17, 1
  br label %43

43:                                               ; preds = %23, %41
  %44 = phi ptr [ %29, %41 ], [ %24, %23 ]
  %45 = phi i64 [ %42, %41 ], [ 32, %23 ]
  %spec.store.select = tail call i64 @llvm.umin.i64(i64 %45, i64 1024)
  %46 = mul nuw nsw i64 %spec.store.select, 56
  %47 = add nuw nsw i64 %46, 16
  %48 = tail call ptr @palloc_extended(i64 noundef %47, i32 noundef 2) #20
  %49 = icmp eq ptr %48, null
  %50 = load ptr, ptr %44, align 8
  br i1 %49, label %51, label %56

51:                                               ; preds = %43
  %52 = getelementptr inbounds nuw i8, ptr %50, i64 36
  store i32 101, ptr %52, align 4
  %53 = load ptr, ptr %44, align 8
  %54 = getelementptr inbounds nuw i8, ptr %53, i64 24
  %55 = load i32, ptr %54, align 8
  %.not68 = icmp eq i32 %55, 0
  %spec.select71 = select i1 %.not68, i32 12, i32 %55
  store i32 %spec.select71, ptr %54, align 8
  br label %.thread73

56:                                               ; preds = %43
  %57 = getelementptr inbounds nuw i8, ptr %50, i64 248
  %58 = load i64, ptr %57, align 8
  %59 = add i64 %58, %47
  store i64 %59, ptr %57, align 8
  %60 = getelementptr inbounds nuw i8, ptr %48, i64 8
  store i64 %spec.store.select, ptr %60, align 8
  %61 = load ptr, ptr %11, align 8
  store ptr %61, ptr %48, align 8
  store ptr %48, ptr %11, align 8
  %62 = getelementptr inbounds nuw i8, ptr %0, i64 88
  store i64 1, ptr %62, align 8
  %63 = getelementptr inbounds nuw i8, ptr %48, i64 16
  br label %64

64:                                               ; preds = %56, %19, %7
  %.055 = phi ptr [ %6, %7 ], [ %22, %19 ], [ %63, %56 ]
  %65 = getelementptr inbounds nuw i8, ptr %0, i64 32
  %66 = load i32, ptr %65, align 8
  %67 = add i32 %66, 1
  store i32 %67, ptr %65, align 8
  store i32 %66, ptr %.055, align 8
  %68 = getelementptr inbounds nuw i8, ptr %.055, i64 4
  store i8 0, ptr %68, align 4
  %69 = getelementptr inbounds nuw i8, ptr %0, i64 40
  %70 = load ptr, ptr %69, align 8
  %71 = icmp eq ptr %70, null
  br i1 %71, label %72, label %73

72:                                               ; preds = %64
  store ptr %.055, ptr %69, align 8
  br label %73

73:                                               ; preds = %72, %64
  %74 = getelementptr inbounds nuw i8, ptr %.055, i64 8
  %75 = getelementptr inbounds nuw i8, ptr %0, i64 48
  tail call void @llvm.memset.p0.i64(ptr noundef nonnull align 8 dereferenceable(40) %74, i8 0, i64 40, i1 false)
  %76 = load ptr, ptr %75, align 8
  %.not70 = icmp eq ptr %76, null
  br i1 %.not70, label %79, label %77

77:                                               ; preds = %73
  %78 = getelementptr inbounds nuw i8, ptr %76, i64 40
  store ptr %.055, ptr %78, align 8
  %.pre = load ptr, ptr %75, align 8
  br label %79

79:                                               ; preds = %77, %73
  %80 = phi ptr [ %.pre, %77 ], [ null, %73 ]
  %81 = getelementptr inbounds nuw i8, ptr %.055, i64 48
  store ptr %80, ptr %81, align 8
  store ptr %.055, ptr %75, align 8
  br label %.thread73

.thread73:                                        ; preds = %51, %34, %79
  %.1 = phi ptr [ %.055, %79 ], [ null, %34 ], [ null, %51 ]
  ret ptr %.1
}